; Function Attrs: nounwind uwtable
define ptr @l_Lean_Elab_Command_elabEvalBang(ptr noundef %0, ptr noundef %1, ptr noundef %2, ptr noundef %3) #0 {
  %5 = load ptr, ptr @l_Lean_Elab_Command_elabEvalBang___closed__2, align 8, !tbaa !4
  %6 = ptrtoint ptr %0 to i64
  %7 = and i64 %6, 1
  %.not = icmp eq i64 %7, 0
  br i1 %.not, label %8, label %lean_inc.exit

8:                                                ; preds = %4
  %.val.i = load i32, ptr %0, align 4, !tbaa !8
  %9 = icmp sgt i32 %.val.i, 0
  br i1 %9, label %10, label %12, !prof !11

10:                                               ; preds = %8
  %11 = add nuw i32 %.val.i, 1
  store i32 %11, ptr %0, align 4, !tbaa !8
  br label %lean_inc.exit

12:                                               ; preds = %8
  %.not.i35 = icmp eq i32 %.val.i, 0
  br i1 %.not.i35, label %lean_inc.exit, label %13

13:                                               ; preds = %12
  tail call void @lean_inc_ref_cold(ptr noundef nonnull %0) #5
  br label %lean_inc.exit

lean_inc.exit:                                    ; preds = %13, %12, %10, %4
  %14 = tail call zeroext i8 @l_Lean_Syntax_isOfKind(ptr noundef %0, ptr noundef %5) #5
  %15 = icmp eq i8 %14, 0
  br i1 %15, label %16, label %43

16:                                               ; preds = %lean_inc.exit
  %17 = ptrtoint ptr %2 to i64
  %18 = and i64 %17, 1
  %.not37 = icmp eq i64 %18, 0
  br i1 %.not37, label %19, label %lean_dec.exit26

19:                                               ; preds = %16
  %20 = load i32, ptr %2, align 4, !tbaa !8
  %21 = icmp sgt i32 %20, 1
  br i1 %21, label %22, label %24, !prof !11

22:                                               ; preds = %19
  %23 = add nsw i32 %20, -1
  store i32 %23, ptr %2, align 4, !tbaa !8
  br label %lean_dec.exit26

24:                                               ; preds = %19
  %.not.i = icmp eq i32 %20, 0
  br i1 %.not.i, label %lean_dec.exit26, label %25

25:                                               ; preds = %24
  tail call void @lean_dec_ref_cold(ptr noundef nonnull %2) #5
  br label %lean_dec.exit26

lean_dec.exit26:                                  ; preds = %25, %24, %22, %16
  %26 = ptrtoint ptr %1 to i64
  %27 = and i64 %26, 1
  %.not38 = icmp eq i64 %27, 0
  br i1 %.not38, label %28, label %lean_dec.exit25

28:                                               ; preds = %lean_dec.exit26
  %29 = load i32, ptr %1, align 4, !tbaa !8
  %30 = icmp sgt i32 %29, 1
  br i1 %30, label %31, label %33, !prof !11

31:                                               ; preds = %28
  %32 = add nsw i32 %29, -1
  store i32 %32, ptr %1, align 4, !tbaa !8
  br label %lean_dec.exit25

33:                                               ; preds = %28
  %.not.i27 = icmp eq i32 %29, 0
  br i1 %.not.i27, label %lean_dec.exit25, label %34

34:                                               ; preds = %33
  tail call void @lean_dec_ref_cold(ptr noundef nonnull %1) #5
  br label %lean_dec.exit25

lean_dec.exit25:                                  ; preds = %34, %33, %31, %lean_dec.exit26
  br i1 %.not, label %35, label %lean_dec.exit24

35:                                               ; preds = %lean_dec.exit25
  %36 = load i32, ptr %0, align 4, !tbaa !8
  %37 = icmp sgt i32 %36, 1
  br i1 %37, label %38, label %40, !prof !11

38:                                               ; preds = %35
  %39 = add nsw i32 %36, -1
  store i32 %39, ptr %0, align 4, !tbaa !8
  br label %lean_dec.exit24

40:                                               ; preds = %35
  %.not.i29 = icmp eq i32 %36, 0
  br i1 %.not.i29, label %lean_dec.exit24, label %41

41:                                               ; preds = %40
  tail call void @lean_dec_ref_cold(ptr noundef nonnull %0) #5
  br label %lean_dec.exit24

lean_dec.exit24:                                  ; preds = %41, %40, %38, %lean_dec.exit25
  %42 = tail call ptr @l_Lean_Elab_throwUnsupportedSyntax___at_Lean_Elab_Command_elabAuxDef___spec__1___rarg(ptr noundef %3) #5
  br label %lean_dec.exit

43:                                               ; preds = %lean_inc.exit
  %44 = tail call ptr @l_Lean_Syntax_getArg(ptr noundef %0, ptr noundef nonnull inttoptr (i64 1 to ptr)) #5
  %45 = tail call ptr @l_Lean_Syntax_getArg(ptr noundef %0, ptr noundef nonnull inttoptr (i64 3 to ptr)) #5
  br i1 %.not, label %46, label %lean_dec.exit23

46:                                               ; preds = %43
  %47 = load i32, ptr %0, align 4, !tbaa !8
  %48 = icmp sgt i32 %47, 1
  br i1 %48, label %49, label %51, !prof !11

49:                                               ; preds = %46
  %50 = add nsw i32 %47, -1
  store i32 %50, ptr %0, align 4, !tbaa !8
  br label %lean_dec.exit23

51:                                               ; preds = %46
  %.not.i31 = icmp eq i32 %47, 0
  br i1 %.not.i31, label %lean_dec.exit23, label %52

52:                                               ; preds = %51
  tail call void @lean_dec_ref_cold(ptr noundef nonnull %0) #5
  br label %lean_dec.exit23

lean_dec.exit23:                                  ; preds = %52, %51, %49, %43
  %53 = tail call ptr @l_Lean_Elab_Command_elabEvalCoreUnsafe(i8 noundef zeroext 1, ptr noundef %44, ptr noundef %45, ptr noundef nonnull inttoptr (i64 1 to ptr), ptr noundef %1, ptr noundef %2, ptr noundef %3)
  %54 = ptrtoint ptr %44 to i64
  %55 = and i64 %54, 1
  %.not36 = icmp eq i64 %55, 0
  br i1 %.not36, label %56, label %lean_dec.exit

56:                                               ; preds = %lean_dec.exit23
  %57 = load i32, ptr %44, align 4, !tbaa !8
  %58 = icmp sgt i32 %57, 1
  br i1 %58, label %59, label %61, !prof !11

59:                                               ; preds = %56
  %60 = add nsw i32 %57, -1
  store i32 %60, ptr %44, align 4, !tbaa !8
  br label %lean_dec.exit

61:                                               ; preds = %56
  %.not.i33 = icmp eq i32 %57, 0
  br i1 %.not.i33, label %lean_dec.exit, label %62

62:                                               ; preds = %61
  tail call void @lean_dec_ref_cold(ptr noundef nonnull %44) #5
  br label %lean_dec.exit

lean_dec.exit:                                    ; preds = %lean_dec.exit23, %59, %61, %62, %lean_dec.exit24
  %.0 = phi ptr [ %42, %lean_dec.exit24 ], [ %53, %62 ], [ %53, %61 ], [ %53, %59 ], [ %53, %lean_dec.exit23 ]
  ret ptr %.0
}